; Function Attrs: nounwind uwtable
define dso_local i32 @select_g_job_test(ptr noundef %0, ptr noundef %1, i32 noundef %2, i32 noundef %3, i32 noundef %4, i16 noundef zeroext %5, ptr noundef %6, ptr noundef %7, ptr noundef %8, ptr noundef %9) local_unnamed_addr #0 {
  %11 = load ptr, ptr @ops, align 8
  %12 = load i32, ptr @select_context_default, align 4
  %13 = sext i32 %12 to i64
  %14 = getelementptr inbounds %struct.slurm_select_ops_t, ptr %11, i64 %13, i32 5
  %15 = load ptr, ptr %14, align 8
  %16 = tail call i32 %15(ptr noundef %0, ptr noundef %1, i32 noundef %2, i32 noundef %3, i32 noundef %4, i16 noundef zeroext %5, ptr noundef %6, ptr noundef %7, ptr noundef %8, ptr noundef %9) #15
  ret i32 %16
}